; ModuleID = 'source-C-CXX/56/2987.c'
source_filename = "source-C-CXX/56/2987.c"
target datalayout = "e-m:e-p270:32:32-p271:32:32-p272:64:64-i64:64-f80:128-n8:16:32:64-S128"
target triple = "x86_64-pc-linux-gnu"

@.str = private unnamed_addr constant [3 x i8] c"%d\00", align 1
@.str.1 = private unnamed_addr constant [4 x i8] c"\0A%s\00", align 1

; Function Attrs: nofree nounwind sspstrong uwtable
define dso_local i32 @main() local_unnamed_addr #0 {
  %1 = alloca i32, align 4
  %2 = alloca [50 x [20 x i8]], align 16
  %3 = bitcast i32* %1 to i8*
  call void @llvm.lifetime.start.p0i8(i64 4, i8* nonnull %3) #5
  %4 = getelementptr inbounds [50 x [20 x i8]], [50 x [20 x i8]]* %2, i64 0, i64 0, i64 0
  call void @llvm.lifetime.start.p0i8(i64 1000, i8* nonnull %4) #5
  %5 = call i32 (i8*, ...) @__isoc99_scanf(i8* getelementptr inbounds ([3 x i8], [3 x i8]* @.str, i64 0, i64 0), i32* nonnull %1)
  %6 = load i32, i32* %1, align 4, !tbaa !5
  %7 = icmp sgt i32 %6, 0
  br i1 %7, label %10, label %61

8:                                                ; preds = %48
  %9 = icmp sgt i32 %50, 0
  br i1 %9, label %53, label %61

10:                                               ; preds = %0, %48
  %11 = phi i64 [ %49, %48 ], [ 0, %0 ]
  %12 = getelementptr inbounds [50 x [20 x i8]], [50 x [20 x i8]]* %2, i64 0, i64 %11, i64 0
  %13 = call i32 (i8*, ...) @__isoc99_scanf(i8* getelementptr inbounds ([4 x i8], [4 x i8]* @.str.1, i64 0, i64 0), i8* nonnull %12)
  %14 = call i64 @strlen(i8* noundef nonnull %12) #6
  %15 = shl i64 %14, 32
  %16 = add i64 %15, -8589934592
  %17 = ashr exact i64 %16, 32
  %18 = getelementptr inbounds [50 x [20 x i8]], [50 x [20 x i8]]* %2, i64 0, i64 %11, i64 %17
  %19 = load i8, i8* %18, align 1, !tbaa !9
  switch i8 %19, label %32 [
    i8 101, label %20
    i8 108, label %26
  ]

20:                                               ; preds = %10
  %21 = add i64 %15, -4294967296
  %22 = ashr exact i64 %21, 32
  %23 = getelementptr inbounds [50 x [20 x i8]], [50 x [20 x i8]]* %2, i64 0, i64 %11, i64 %22
  %24 = load i8, i8* %23, align 1, !tbaa !9
  %25 = icmp eq i8 %24, 114
  br i1 %25, label %46, label %32

26:                                               ; preds = %10
  %27 = add i64 %15, -4294967296
  %28 = ashr exact i64 %27, 32
  %29 = getelementptr inbounds [50 x [20 x i8]], [50 x [20 x i8]]* %2, i64 0, i64 %11, i64 %28
  %30 = load i8, i8* %29, align 1, !tbaa !9
  %31 = icmp eq i8 %30, 121
  br i1 %31, label %46, label %48

32:                                               ; preds = %10, %20
  %33 = add i64 %15, -12884901888
  %34 = ashr exact i64 %33, 32
  %35 = getelementptr inbounds [50 x [20 x i8]], [50 x [20 x i8]]* %2, i64 0, i64 %11, i64 %34
  %36 = load i8, i8* %35, align 1, !tbaa !9
  %37 = icmp eq i8 %36, 105
  %38 = icmp eq i8 %19, 110
  %39 = select i1 %37, i1 %38, i1 false
  br i1 %39, label %40, label %48

40:                                               ; preds = %32
  %41 = add i64 %15, -4294967296
  %42 = ashr exact i64 %41, 32
  %43 = getelementptr inbounds [50 x [20 x i8]], [50 x [20 x i8]]* %2, i64 0, i64 %11, i64 %42
  %44 = load i8, i8* %43, align 1, !tbaa !9
  %45 = icmp eq i8 %44, 103
  br i1 %45, label %46, label %48

46:                                               ; preds = %40, %26, %20
  %47 = phi i8* [ %18, %20 ], [ %18, %26 ], [ %35, %40 ]
  store i8 0, i8* %47, align 1, !tbaa !9
  br label %48

48:                                               ; preds = %46, %26, %40, %32
  %49 = add nuw nsw i64 %11, 1
  %50 = load i32, i32* %1, align 4, !tbaa !5
  %51 = sext i32 %50 to i64
  %52 = icmp slt i64 %49, %51
  br i1 %52, label %10, label %8, !llvm.loop !10

53:                                               ; preds = %8, %53
  %54 = phi i64 [ %57, %53 ], [ 0, %8 ]
  %55 = getelementptr inbounds [50 x [20 x i8]], [50 x [20 x i8]]* %2, i64 0, i64 %54, i64 0
  %56 = call i32 @puts(i8* nonnull %55)
  %57 = add nuw nsw i64 %54, 1
  %58 = load i32, i32* %1, align 4, !tbaa !5
  %59 = sext i32 %58 to i64
  %60 = icmp slt i64 %57, %59
  br i1 %60, label %53, label %61, !llvm.loop !12

61:                                               ; preds = %53, %0, %8
  call void @llvm.lifetime.end.p0i8(i64 1000, i8* nonnull %4) #5
  call void @llvm.lifetime.end.p0i8(i64 4, i8* nonnull %3) #5
  ret i32 0
}

; Function Attrs: argmemonly mustprogress nofree nosync nounwind willreturn
declare void @llvm.lifetime.start.p0i8(i64 immarg, i8* nocapture) #1

; Function Attrs: nofree nounwind
declare noundef i32 @__isoc99_scanf(i8* nocapture noundef readonly, ...) local_unnamed_addr #2

; Function Attrs: argmemonly mustprogress nofree nounwind readonly willreturn
declare i64 @strlen(i8* nocapture) local_unnamed_addr #3

; Function Attrs: argmemonly mustprogress nofree nosync nounwind willreturn
declare void @llvm.lifetime.end.p0i8(i64 immarg, i8* nocapture) #1

; Function Attrs: nofree nounwind
declare noundef i32 @puts(i8* nocapture noundef readonly) local_unnamed_addr #4


!llvm.module.flags = !{!0, !1, !2, !3}
!llvm.ident = !{!4}

!0 = !{i32 1, !"wchar_size", i32 4}
!1 = !{i32 7, !"PIC Level", i32 2}
!2 = !{i32 7, !"PIE Level", i32 2}
!3 = !{i32 7, !"uwtable", i32 1}
!4 = !{!"clang version 13.0.0"}
!5 = !{!6, !6, i64 0}
!6 = !{!"int", !7, i64 0}
!7 = !{!"omnipotent char", !8, i64 0}
!8 = !{!"Simple C/C++ TBAA"}
!9 = !{!7, !7, i64 0}
!10 = distinct !{!10, !11}
!11 = !{!"llvm.loop.mustprogress"}
!12 = distinct !{!12, !11}
